target datalayout = "e-m:e-p270:32:32-p271:32:32-p272:64:64-i64:64-i128:128-f80:128-n8:16:32:64-S128"
target triple = "x86_64-pc-linux-gnu"

%struct.H5G_bt2_ud_common_t = type { ptr, ptr, ptr, i32, i64, ptr, ptr }
%struct.H5O_link_t = type { i32, i8, i64, i32, ptr, %union.anon.0 }
%union.anon.0 = type { %struct.H5O_link_ud_t }
%struct.H5O_link_ud_t = type { ptr, i64 }
%struct.H5G_fh_ud_rm_t = type { ptr, i64, ptr, i8 }

@.str = private unnamed_addr constant [102 x i8] c"generated/home/dtcxzyw/WorkSpace/Projects/compilers/llvm-opt-benchmark/bench/hdf5/hdf5/src/H5Gdense.c\00", align 1
@H5E_SYM_g = external global i64, align 8
@H5E_CLOSEERROR_g = external global i64, align 8
@.str.10 = private unnamed_addr constant [47 x i8] c"can't close v2 B-tree for creation order index\00", align 1
@H5E_CANTOPENOBJ_g = external global i64, align 8
@.str.19 = private unnamed_addr constant [50 x i8] c"unable to open v2 B-tree for creation order index\00", align 1
@H5E_CANTREMOVE_g = external global i64, align 8
@H5E_CANTDELETE_g = external global i64, align 8
@H5E_CANTDECODE_g = external global i64, align 8
@.str.42 = private unnamed_addr constant [18 x i8] c"can't decode link\00", align 1
@__func__.H5G__dense_remove_fh_cb = private unnamed_addr constant [24 x i8] c"H5G__dense_remove_fh_cb\00", align 1
@.str.46 = private unnamed_addr constant [58 x i8] c"unable to remove link from creation order index v2 B-tree\00", align 1
@H5E_CANTRENAME_g = external global i64, align 8
@.str.47 = private unnamed_addr constant [30 x i8] c"unable to rename open objects\00", align 1
@.str.48 = private unnamed_addr constant [22 x i8] c"unable to delete link\00", align 1

; Function Attrs: nounwind uwtable
define internal i32 @H5G__dense_remove_fh_cb(ptr noundef %0, i64 noundef %1, ptr noundef %2) #0 {
  %4 = alloca ptr, align 8
  %5 = alloca i64, align 8
  %6 = alloca ptr, align 8
  %7 = alloca ptr, align 8
  %8 = alloca ptr, align 8
  %9 = alloca ptr, align 8
  %10 = alloca i32, align 4
  %11 = alloca i8, align 1
  %12 = alloca %struct.H5G_bt2_ud_common_t, align 8
  store ptr %0, ptr %4, align 8
  store i64 %1, ptr %5, align 8
  store ptr %2, ptr %6, align 8
  %13 = load ptr, ptr %6, align 8
  store ptr %13, ptr %7, align 8
  store ptr null, ptr %8, align 8
  store ptr null, ptr %9, align 8
  store i32 0, ptr %10, align 4
  store i8 0, ptr %11, align 1
  %14 = load ptr, ptr %7, align 8
  %15 = getelementptr inbounds %struct.H5G_fh_ud_rm_t, ptr %14, i32 0, i32 0
  %16 = load ptr, ptr %15, align 8
  %17 = load i64, ptr %5, align 8
  %18 = load ptr, ptr %4, align 8
  %19 = call ptr @H5O_msg_decode(ptr noundef %16, ptr noundef null, i32 noundef 6, i64 noundef %17, ptr noundef %18)
  store ptr %19, ptr %8, align 8
  %20 = icmp eq ptr null, %19
  br i1 %20, label %21, label %36

21:                                               ; preds = %3
  br label %22

22:                                               ; preds = %21
  br label %23

23:                                               ; preds = %22
  br label %24

24:                                               ; preds = %23
  %25 = load i64, ptr @H5E_SYM_g, align 8
  %26 = load i64, ptr @H5E_CANTDECODE_g, align 8
  %27 = call i32 (ptr, ptr, i32, i64, i64, ptr, ...) @H5E_printf_stack(ptr noundef @.str, ptr noundef @__func__.H5G__dense_remove_fh_cb, i32 noundef 1193, i64 noundef %25, i64 noundef %26, ptr noundef @.str.42)
  br label %28

28:                                               ; preds = %24
  store i8 1, ptr %11, align 1
  %29 = load i8, ptr %11, align 1
  %30 = trunc i8 %29 to i1
  %31 = zext i1 %30 to i8
  store i8 %31, ptr %11, align 1
  br label %32

32:                                               ; preds = %28
  br label %33

33:                                               ; preds = %32
  store i32 -1, ptr %10, align 4
  br label %143

34:                                               ; No predecessors!
  br label %35

35:                                               ; preds = %34
  br label %36

36:                                               ; preds = %35, %3
  %37 = load ptr, ptr %7, align 8
  %38 = getelementptr inbounds %struct.H5G_fh_ud_rm_t, ptr %37, i32 0, i32 1
  %39 = load i64, ptr %38, align 8
  %40 = icmp ne i64 %39, -1
  br i1 %40, label %41, label %89

41:                                               ; preds = %36
  %42 = load ptr, ptr %7, align 8
  %43 = getelementptr inbounds %struct.H5G_fh_ud_rm_t, ptr %42, i32 0, i32 0
  %44 = load ptr, ptr %43, align 8
  %45 = load ptr, ptr %7, align 8
  %46 = getelementptr inbounds %struct.H5G_fh_ud_rm_t, ptr %45, i32 0, i32 1
  %47 = load i64, ptr %46, align 8
  %48 = call ptr @H5B2_open(ptr noundef %44, i64 noundef %47, ptr noundef null)
  store ptr %48, ptr %9, align 8
  %49 = icmp eq ptr null, %48
  br i1 %49, label %50, label %65

50:                                               ; preds = %41
  br label %51

51:                                               ; preds = %50
  br label %52

52:                                               ; preds = %51
  br label %53

53:                                               ; preds = %52
  %54 = load i64, ptr @H5E_SYM_g, align 8
  %55 = load i64, ptr @H5E_CANTOPENOBJ_g, align 8
  %56 = call i32 (ptr, ptr, i32, i64, i64, ptr, ...) @H5E_printf_stack(ptr noundef @.str, ptr noundef @__func__.H5G__dense_remove_fh_cb, i32 noundef 1201, i64 noundef %54, i64 noundef %55, ptr noundef @.str.19)
  br label %57

57:                                               ; preds = %53
  store i8 1, ptr %11, align 1
  %58 = load i8, ptr %11, align 1
  %59 = trunc i8 %58 to i1
  %60 = zext i1 %59 to i8
  store i8 %60, ptr %11, align 1
  br label %61

61:                                               ; preds = %57
  br label %62

62:                                               ; preds = %61
  store i32 -1, ptr %10, align 4
  br label %143

63:                                               ; No predecessors!
  br label %64

64:                                               ; preds = %63
  br label %65

65:                                               ; preds = %64, %41
  %66 = load ptr, ptr %8, align 8
  %67 = getelementptr inbounds %struct.H5O_link_t, ptr %66, i32 0, i32 2
  %68 = load i64, ptr %67, align 8
  %69 = getelementptr inbounds %struct.H5G_bt2_ud_common_t, ptr %12, i32 0, i32 4
  store i64 %68, ptr %69, align 8
  %70 = load ptr, ptr %9, align 8
  %71 = call i32 @H5B2_remove(ptr noundef %70, ptr noundef %12, ptr noundef null, ptr noundef null)
  %72 = icmp slt i32 %71, 0
  br i1 %72, label %73, label %88

73:                                               ; preds = %65
  br label %74

74:                                               ; preds = %73
  br label %75

75:                                               ; preds = %74
  br label %76

76:                                               ; preds = %75
  %77 = load i64, ptr @H5E_SYM_g, align 8
  %78 = load i64, ptr @H5E_CANTREMOVE_g, align 8
  %79 = call i32 (ptr, ptr, i32, i64, i64, ptr, ...) @H5E_printf_stack(ptr noundef @.str, ptr noundef @__func__.H5G__dense_remove_fh_cb, i32 noundef 1210, i64 noundef %77, i64 noundef %78, ptr noundef @.str.46)
  br label %80

80:                                               ; preds = %76
  store i8 1, ptr %11, align 1
  %81 = load i8, ptr %11, align 1
  %82 = trunc i8 %81 to i1
  %83 = zext i1 %82 to i8
  store i8 %83, ptr %11, align 1
  br label %84

84:                                               ; preds = %80
  br label %85

85:                                               ; preds = %84
  store i32 -1, ptr %10, align 4
  br label %143

86:                                               ; No predecessors!
  br label %87

87:                                               ; preds = %86
  br label %88

88:                                               ; preds = %87, %65
  br label %89

89:                                               ; preds = %88, %36
  %90 = load ptr, ptr %7, align 8
  %91 = getelementptr inbounds %struct.H5G_fh_ud_rm_t, ptr %90, i32 0, i32 3
  %92 = load i8, ptr %91, align 8
  %93 = trunc i8 %92 to i1
  br i1 %93, label %94, label %120

94:                                               ; preds = %89
  %95 = load ptr, ptr %7, align 8
  %96 = getelementptr inbounds %struct.H5G_fh_ud_rm_t, ptr %95, i32 0, i32 0
  %97 = load ptr, ptr %96, align 8
  %98 = load ptr, ptr %7, align 8
  %99 = getelementptr inbounds %struct.H5G_fh_ud_rm_t, ptr %98, i32 0, i32 2
  %100 = load ptr, ptr %99, align 8
  %101 = load ptr, ptr %8, align 8
  %102 = call i32 @H5G__link_name_replace(ptr noundef %97, ptr noundef %100, ptr noundef %101)
  %103 = icmp slt i32 %102, 0
  br i1 %103, label %104, label %119

104:                                              ; preds = %94
  br label %105

105:                                              ; preds = %104
  br label %106

106:                                              ; preds = %105
  br label %107

107:                                              ; preds = %106
  %108 = load i64, ptr @H5E_SYM_g, align 8
  %109 = load i64, ptr @H5E_CANTRENAME_g, align 8
  %110 = call i32 (ptr, ptr, i32, i64, i64, ptr, ...) @H5E_printf_stack(ptr noundef @.str, ptr noundef @__func__.H5G__dense_remove_fh_cb, i32 noundef 1216, i64 noundef %108, i64 noundef %109, ptr noundef @.str.47)
  br label %111

111:                                              ; preds = %107
  store i8 1, ptr %11, align 1
  %112 = load i8, ptr %11, align 1
  %113 = trunc i8 %112 to i1
  %114 = zext i1 %113 to i8
  store i8 %114, ptr %11, align 1
  br label %115

115:                                              ; preds = %111
  br label %116

116:                                              ; preds = %115
  store i32 -1, ptr %10, align 4
  br label %143

117:                                              ; No predecessors!
  br label %118

118:                                              ; preds = %117
  br label %119

119:                                              ; preds = %118, %94
  br label %120

120:                                              ; preds = %119, %89
  %121 = load ptr, ptr %7, align 8
  %122 = getelementptr inbounds %struct.H5G_fh_ud_rm_t, ptr %121, i32 0, i32 0
  %123 = load ptr, ptr %122, align 8
  %124 = load ptr, ptr %8, align 8
  %125 = call i32 @H5O_link_delete(ptr noundef %123, ptr noundef null, ptr noundef %124)
  %126 = icmp slt i32 %125, 0
  br i1 %126, label %127, label %142

127:                                              ; preds = %120
  br label %128

128:                                              ; preds = %127
  br label %129

129:                                              ; preds = %128
  br label %130

130:                                              ; preds = %129
  %131 = load i64, ptr @H5E_SYM_g, align 8
  %132 = load i64, ptr @H5E_CANTDELETE_g, align 8
  %133 = call i32 (ptr, ptr, i32, i64, i64, ptr, ...) @H5E_printf_stack(ptr noundef @.str, ptr noundef @__func__.H5G__dense_remove_fh_cb, i32 noundef 1221, i64 noundef %131, i64 noundef %132, ptr noundef @.str.48)
  br label %134

134:                                              ; preds = %130
  store i8 1, ptr %11, align 1
  %135 = load i8, ptr %11, align 1
  %136 = trunc i8 %135 to i1
  %137 = zext i1 %136 to i8
  store i8 %137, ptr %11, align 1
  br label %138

138:                                              ; preds = %134
  br label %139

139:                                              ; preds = %138
  store i32 -1, ptr %10, align 4
  br label %143

140:                                              ; No predecessors!
  br label %141

141:                                              ; preds = %140
  br label %142

142:                                              ; preds = %141, %120
  br label %143

143:                                              ; preds = %142, %139, %116, %85, %62, %33
  %144 = load ptr, ptr %9, align 8
  %145 = icmp ne ptr %144, null
  br i1 %145, label %146, label %163

146:                                              ; preds = %143
  %147 = load ptr, ptr %9, align 8
  %148 = call i32 @H5B2_close(ptr noundef %147)
  %149 = icmp slt i32 %148, 0
  br i1 %149, label %150, label %163

150:                                              ; preds = %146
  br label %151

151:                                              ; preds = %150
  br label %152

152:                                              ; preds = %151
  br label %153

153:                                              ; preds = %152
  %154 = load i64, ptr @H5E_SYM_g, align 8
  %155 = load i64, ptr @H5E_CLOSEERROR_g, align 8
  %156 = call i32 (ptr, ptr, i32, i64, i64, ptr, ...) @H5E_printf_stack(ptr noundef @.str, ptr noundef @__func__.H5G__dense_remove_fh_cb, i32 noundef 1226, i64 noundef %154, i64 noundef %155, ptr noundef @.str.10)
  br label %157

157:                                              ; preds = %153
  store i8 1, ptr %11, align 1
  %158 = load i8, ptr %11, align 1
  %159 = trunc i8 %158 to i1
  %160 = zext i1 %159 to i8
  store i8 %160, ptr %11, align 1
  br label %161

161:                                              ; preds = %157
  store i32 -1, ptr %10, align 4
  br label %162

162:                                              ; preds = %161
  br label %163

163:                                              ; preds = %162, %146, %143
  %164 = load ptr, ptr %8, align 8
  %165 = icmp ne ptr %164, null
  br i1 %165, label %166, label %169

166:                                              ; preds = %163
  %167 = load ptr, ptr %8, align 8
  %168 = call ptr @H5O_msg_free(i32 noundef 6, ptr noundef %167)
  br label %169

169:                                              ; preds = %166, %163
  %170 = load i32, ptr %10, align 4
  ret i32 %170
}