; Function Attrs: nounwind uwtable
define internal range(i32 -1, 1) i32 @H5G__dense_remove_fh_cb(ptr noundef %0, i64 noundef %1, ptr nocapture noundef readonly %2) #0 {
  %4 = alloca %struct.H5G_bt2_ud_common_t, align 8
  %5 = load ptr, ptr %2, align 8
  %6 = tail call ptr @H5O_msg_decode(ptr noundef %5, ptr noundef null, i32 noundef 6, i64 noundef %1, ptr noundef %0) #8
  %7 = icmp eq ptr %6, null
  br i1 %7, label %.thread48, label %11

.thread48:                                        ; preds = %3
  %8 = load i64, ptr @H5E_SYM_g, align 8
  %9 = load i64, ptr @H5E_CANTDECODE_g, align 8
  %10 = tail call i32 (ptr, ptr, i32, i64, i64, ptr, ...) @H5E_printf_stack(ptr noundef nonnull @.str, ptr noundef nonnull @__func__.H5G__dense_remove_fh_cb, i32 noundef 1193, i64 noundef %8, i64 noundef %9, ptr noundef nonnull @.str.42) #8
  br label %62

11:                                               ; preds = %3
  %12 = getelementptr inbounds i8, ptr %2, i64 8
  %13 = load i64, ptr %12, align 8
  %.not = icmp eq i64 %13, -1
  br i1 %.not, label %27, label %14

14:                                               ; preds = %11
  %15 = load ptr, ptr %2, align 8
  %16 = tail call ptr @H5B2_open(ptr noundef %15, i64 noundef %13, ptr noundef null) #8
  %17 = icmp eq ptr %16, null
  br i1 %17, label %57, label %18

18:                                               ; preds = %14
  %19 = getelementptr inbounds i8, ptr %6, i64 8
  %20 = load i64, ptr %19, align 8
  %21 = getelementptr inbounds i8, ptr %4, i64 32
  store i64 %20, ptr %21, align 8
  %22 = call i32 @H5B2_remove(ptr noundef nonnull %16, ptr noundef nonnull %4, ptr noundef null, ptr noundef null) #8
  %23 = icmp slt i32 %22, 0
  br i1 %23, label %.thread37, label %27

.thread37:                                        ; preds = %18
  %24 = load i64, ptr @H5E_SYM_g, align 8
  %25 = load i64, ptr @H5E_CANTREMOVE_g, align 8
  %26 = call i32 (ptr, ptr, i32, i64, i64, ptr, ...) @H5E_printf_stack(ptr noundef nonnull @.str, ptr noundef nonnull @__func__.H5G__dense_remove_fh_cb, i32 noundef 1210, i64 noundef %24, i64 noundef %25, ptr noundef nonnull @.str.46) #8
  br label %50

27:                                               ; preds = %18, %11
  %.025 = phi ptr [ %16, %18 ], [ null, %11 ]
  %28 = getelementptr inbounds i8, ptr %2, i64 24
  %29 = load i8, ptr %28, align 8
  %30 = trunc i8 %29 to i1
  br i1 %30, label %31, label %41

31:                                               ; preds = %27
  %32 = load ptr, ptr %2, align 8
  %33 = getelementptr inbounds i8, ptr %2, i64 16
  %34 = load ptr, ptr %33, align 8
  %35 = call i32 @H5G__link_name_replace(ptr noundef %32, ptr noundef %34, ptr noundef nonnull %6) #8
  %36 = icmp slt i32 %35, 0
  br i1 %36, label %37, label %41

37:                                               ; preds = %31
  %38 = load i64, ptr @H5E_SYM_g, align 8
  %39 = load i64, ptr @H5E_CANTRENAME_g, align 8
  %40 = call i32 (ptr, ptr, i32, i64, i64, ptr, ...) @H5E_printf_stack(ptr noundef nonnull @.str, ptr noundef nonnull @__func__.H5G__dense_remove_fh_cb, i32 noundef 1216, i64 noundef %38, i64 noundef %39, ptr noundef nonnull @.str.47) #8
  br label %49

41:                                               ; preds = %31, %27
  %42 = load ptr, ptr %2, align 8
  %43 = call i32 @H5O_link_delete(ptr noundef %42, ptr noundef null, ptr noundef nonnull %6) #8
  %44 = icmp slt i32 %43, 0
  br i1 %44, label %45, label %49

45:                                               ; preds = %41
  %46 = load i64, ptr @H5E_SYM_g, align 8
  %47 = load i64, ptr @H5E_CANTDELETE_g, align 8
  %48 = call i32 (ptr, ptr, i32, i64, i64, ptr, ...) @H5E_printf_stack(ptr noundef nonnull @.str, ptr noundef nonnull @__func__.H5G__dense_remove_fh_cb, i32 noundef 1221, i64 noundef %46, i64 noundef %47, ptr noundef nonnull @.str.48) #8
  br label %49

49:                                               ; preds = %41, %45, %37
  %.0 = phi i32 [ -1, %37 ], [ -1, %45 ], [ 0, %41 ]
  %.not32 = icmp eq ptr %.025, null
  br i1 %.not32, label %.thread44, label %50

50:                                               ; preds = %.thread37, %49
  %.042 = phi i32 [ -1, %.thread37 ], [ %.0, %49 ]
  %.12641 = phi ptr [ %16, %.thread37 ], [ %.025, %49 ]
  %51 = call i32 @H5B2_close(ptr noundef nonnull %.12641) #8
  %52 = icmp slt i32 %51, 0
  br i1 %52, label %53, label %.thread44

53:                                               ; preds = %50
  %54 = load i64, ptr @H5E_SYM_g, align 8
  %55 = load i64, ptr @H5E_CLOSEERROR_g, align 8
  %56 = call i32 (ptr, ptr, i32, i64, i64, ptr, ...) @H5E_printf_stack(ptr noundef nonnull @.str, ptr noundef nonnull @__func__.H5G__dense_remove_fh_cb, i32 noundef 1226, i64 noundef %54, i64 noundef %55, ptr noundef nonnull @.str.10) #8
  br label %.thread44

57:                                               ; preds = %14
  %58 = load i64, ptr @H5E_SYM_g, align 8
  %59 = load i64, ptr @H5E_CANTOPENOBJ_g, align 8
  %60 = tail call i32 (ptr, ptr, i32, i64, i64, ptr, ...) @H5E_printf_stack(ptr noundef nonnull @.str, ptr noundef nonnull @__func__.H5G__dense_remove_fh_cb, i32 noundef 1201, i64 noundef %58, i64 noundef %59, ptr noundef nonnull @.str.19) #8
  br label %.thread44

.thread44:                                        ; preds = %49, %50, %53, %57
  %.146 = phi i32 [ -1, %57 ], [ %.0, %49 ], [ %.042, %50 ], [ -1, %53 ]
  %61 = call ptr @H5O_msg_free(i32 noundef 6, ptr noundef nonnull %6) #8
  br label %62

62:                                               ; preds = %.thread48, %.thread44
  %.147 = phi i32 [ %.146, %.thread44 ], [ -1, %.thread48 ]
  ret i32 %.147
}